target datalayout = "e-m:e-p270:32:32-p271:32:32-p272:64:64-i64:64-i128:128-f80:128-n8:16:32:64-S128"
target triple = "x86_64-pc-linux-gnu"

@H5_libinit_g = external global i8, align 1
@H5_libterm_g = external global i8, align 1
@.str = private unnamed_addr constant [97 x i8] c"generated/home/dtcxzyw/WorkSpace/Projects/compilers/llvm-opt-benchmark/bench/hdf5/hdf5/src/H5I.c\00", align 1
@H5E_FUNC_g = external global i64, align 8
@H5E_CANTINIT_g = external global i64, align 8
@.str.1 = private unnamed_addr constant [30 x i8] c"library initialization failed\00", align 1
@H5E_CANTSET_g = external global i64, align 8
@.str.2 = private unnamed_addr constant [22 x i8] c"can't set API context\00", align 1
@H5E_ID_g = external global i64, align 8
@__func__.H5Idec_ref = private unnamed_addr constant [11 x i8] c"H5Idec_ref\00", align 1
@H5E_BADID_g = external global i64, align 8
@.str.13 = private unnamed_addr constant [11 x i8] c"invalid ID\00", align 1
@H5E_CANTDEC_g = external global i64, align 8
@.str.14 = private unnamed_addr constant [29 x i8] c"can't decrement ID ref count\00", align 1

; Function Attrs: nounwind uwtable
define i32 @H5Idec_ref(i64 noundef %0) #0 {
  %2 = alloca i64, align 8
  %3 = alloca i32, align 4
  %4 = alloca i8, align 1
  %5 = alloca i8, align 1
  store i64 %0, ptr %2, align 8
  store i32 0, ptr %3, align 4
  store i8 0, ptr %4, align 1
  store i8 0, ptr %5, align 1
  %6 = load i8, ptr @H5_libinit_g, align 1
  %7 = trunc i8 %6 to i1
  br i1 %7, label %12, label %8

8:                                                ; preds = %1
  %9 = load i8, ptr @H5_libterm_g, align 1
  %10 = trunc i8 %9 to i1
  %11 = xor i1 %10, true
  br label %12

12:                                               ; preds = %8, %1
  %13 = phi i1 [ false, %1 ], [ %11, %8 ]
  %14 = xor i1 %13, true
  %15 = xor i1 %14, true
  %16 = zext i1 %15 to i32
  %17 = sext i32 %16 to i64
  %18 = icmp ne i64 %17, 0
  br i1 %18, label %19, label %43

19:                                               ; preds = %12
  %20 = call i32 @H5_init_library()
  %21 = icmp slt i32 %20, 0
  %22 = xor i1 %21, true
  %23 = xor i1 %22, true
  %24 = zext i1 %23 to i32
  %25 = sext i32 %24 to i64
  %26 = icmp ne i64 %25, 0
  br i1 %26, label %27, label %42

27:                                               ; preds = %19
  br label %28

28:                                               ; preds = %27
  br label %29

29:                                               ; preds = %28
  br label %30

30:                                               ; preds = %29
  %31 = load i64, ptr @H5E_FUNC_g, align 8
  %32 = load i64, ptr @H5E_CANTINIT_g, align 8
  %33 = call i32 (ptr, ptr, i32, i64, i64, ptr, ...) @H5E_printf_stack(ptr noundef @.str, ptr noundef @__func__.H5Idec_ref, i32 noundef 454, i64 noundef %31, i64 noundef %32, ptr noundef @.str.1)
  br label %34

34:                                               ; preds = %30
  store i8 1, ptr %5, align 1
  %35 = load i8, ptr %5, align 1
  %36 = trunc i8 %35 to i1
  %37 = zext i1 %36 to i8
  store i8 %37, ptr %5, align 1
  br label %38

38:                                               ; preds = %34
  br label %39

39:                                               ; preds = %38
  store i32 -1, ptr %3, align 4
  br label %106

40:                                               ; No predecessors!
  br label %41

41:                                               ; preds = %40
  br label %42

42:                                               ; preds = %41, %19
  br label %43

43:                                               ; preds = %42, %12
  %44 = call i32 @H5CX_push()
  %45 = icmp slt i32 %44, 0
  %46 = xor i1 %45, true
  %47 = xor i1 %46, true
  %48 = zext i1 %47 to i32
  %49 = sext i32 %48 to i64
  %50 = icmp ne i64 %49, 0
  br i1 %50, label %51, label %66

51:                                               ; preds = %43
  br label %52

52:                                               ; preds = %51
  br label %53

53:                                               ; preds = %52
  br label %54

54:                                               ; preds = %53
  %55 = load i64, ptr @H5E_FUNC_g, align 8
  %56 = load i64, ptr @H5E_CANTSET_g, align 8
  %57 = call i32 (ptr, ptr, i32, i64, i64, ptr, ...) @H5E_printf_stack(ptr noundef @.str, ptr noundef @__func__.H5Idec_ref, i32 noundef 454, i64 noundef %55, i64 noundef %56, ptr noundef @.str.2)
  br label %58

58:                                               ; preds = %54
  store i8 1, ptr %5, align 1
  %59 = load i8, ptr %5, align 1
  %60 = trunc i8 %59 to i1
  %61 = zext i1 %60 to i8
  store i8 %61, ptr %5, align 1
  br label %62

62:                                               ; preds = %58
  br label %63

63:                                               ; preds = %62
  store i32 -1, ptr %3, align 4
  br label %106

64:                                               ; No predecessors!
  br label %65

65:                                               ; preds = %64
  br label %67

66:                                               ; preds = %43
  store i8 1, ptr %4, align 1
  br label %67

67:                                               ; preds = %66, %65
  %68 = call i32 @H5E_clear_stack()
  %69 = load i64, ptr %2, align 8
  %70 = icmp slt i64 %69, 0
  br i1 %70, label %71, label %86

71:                                               ; preds = %67
  br label %72

72:                                               ; preds = %71
  br label %73

73:                                               ; preds = %72
  br label %74

74:                                               ; preds = %73
  %75 = load i64, ptr @H5E_ID_g, align 8
  %76 = load i64, ptr @H5E_BADID_g, align 8
  %77 = call i32 (ptr, ptr, i32, i64, i64, ptr, ...) @H5E_printf_stack(ptr noundef @.str, ptr noundef @__func__.H5Idec_ref, i32 noundef 458, i64 noundef %75, i64 noundef %76, ptr noundef @.str.13)
  br label %78

78:                                               ; preds = %74
  store i8 1, ptr %5, align 1
  %79 = load i8, ptr %5, align 1
  %80 = trunc i8 %79 to i1
  %81 = zext i1 %80 to i8
  store i8 %81, ptr %5, align 1
  br label %82

82:                                               ; preds = %78
  br label %83

83:                                               ; preds = %82
  store i32 -1, ptr %3, align 4
  br label %106

84:                                               ; No predecessors!
  br label %85

85:                                               ; preds = %84
  br label %86

86:                                               ; preds = %85, %67
  %87 = load i64, ptr %2, align 8
  %88 = call i32 @H5I_dec_app_ref(i64 noundef %87)
  store i32 %88, ptr %3, align 4
  %89 = icmp slt i32 %88, 0
  br i1 %89, label %90, label %105

90:                                               ; preds = %86
  br label %91

91:                                               ; preds = %90
  br label %92

92:                                               ; preds = %91
  br label %93

93:                                               ; preds = %92
  %94 = load i64, ptr @H5E_ID_g, align 8
  %95 = load i64, ptr @H5E_CANTDEC_g, align 8
  %96 = call i32 (ptr, ptr, i32, i64, i64, ptr, ...) @H5E_printf_stack(ptr noundef @.str, ptr noundef @__func__.H5Idec_ref, i32 noundef 462, i64 noundef %94, i64 noundef %95, ptr noundef @.str.14)
  br label %97

97:                                               ; preds = %93
  store i8 1, ptr %5, align 1
  %98 = load i8, ptr %5, align 1
  %99 = trunc i8 %98 to i1
  %100 = zext i1 %99 to i8
  store i8 %100, ptr %5, align 1
  br label %101

101:                                              ; preds = %97
  br label %102

102:                                              ; preds = %101
  store i32 -1, ptr %3, align 4
  br label %106

103:                                              ; No predecessors!
  br label %104

104:                                              ; preds = %103
  br label %105

105:                                              ; preds = %104, %86
  br label %106

106:                                              ; preds = %105, %102, %83, %63, %39
  %107 = load i8, ptr %4, align 1
  %108 = trunc i8 %107 to i1
  %109 = xor i1 %108, true
  %110 = xor i1 %109, true
  %111 = zext i1 %110 to i32
  %112 = sext i32 %111 to i64
  %113 = icmp ne i64 %112, 0
  br i1 %113, label %114, label %116

114:                                              ; preds = %106
  %115 = call i32 @H5CX_pop(i1 noundef zeroext true)
  store i8 0, ptr %4, align 1
  br label %116

116:                                              ; preds = %114, %106
  %117 = load i8, ptr %5, align 1
  %118 = trunc i8 %117 to i1
  %119 = xor i1 %118, true
  %120 = xor i1 %119, true
  %121 = zext i1 %120 to i32
  %122 = sext i32 %121 to i64
  %123 = icmp ne i64 %122, 0
  br i1 %123, label %124, label %126

124:                                              ; preds = %116
  %125 = call i32 @H5E_dump_api_stack()
  br label %126

126:                                              ; preds = %124, %116
  %127 = load i32, ptr %3, align 4
  ret i32 %127
}